; Function Attrs: mustprogress uwtable
define hidden void @_ZNK4cvc58internal13symfpuLiteral16wrappedBitVectorILb0EErmERKS3_(ptr dead_on_unwind noalias writable sret(%"class.cvc5::internal::symfpuLiteral::wrappedBitVector.0") align 8 %0, ptr noundef nonnull align 8 dereferenceable(24) %1, ptr noundef nonnull align 8 dereferenceable(24) %2) local_unnamed_addr #3 align 2 personality ptr @__gxx_personality_v0 {
  %4 = alloca %"class.cvc5::internal::BitVector", align 8
  call void @llvm.lifetime.start.p0(i64 24, ptr nonnull %4) #9
  call void @_ZNK4cvc58internal9BitVector16unsignedRemTotalERKS1_(ptr dead_on_unwind nonnull writable sret(%"class.cvc5::internal::BitVector") align 8 %4, ptr noundef nonnull align 8 dereferenceable(24) %1, ptr noundef nonnull align 8 dereferenceable(24) %2)
  invoke void @_ZN4cvc58internal13symfpuLiteral16wrappedBitVectorILb0EEC1ERKNS0_9BitVectorE(ptr noundef nonnull align 8 dereferenceable(24) %0, ptr noundef nonnull align 8 dereferenceable(24) %4)
          to label %5 unwind label %10

5:                                                ; preds = %3
  %6 = getelementptr inbounds nuw i8, ptr %4, i64 8
  invoke void @__gmpz_clear(ptr noundef nonnull align 8 dereferenceable(16) %6)
          to label %_ZN4cvc58internal9BitVectorD2Ev.exit unwind label %7

7:                                                ; preds = %5
  %8 = landingpad { ptr, i32 }
          catch ptr null
  %9 = extractvalue { ptr, i32 } %8, 0
  call void @__clang_call_terminate(ptr %9) #10
  unreachable

_ZN4cvc58internal9BitVectorD2Ev.exit:             ; preds = %5
  call void @llvm.lifetime.end.p0(i64 24, ptr nonnull %4) #9
  ret void

10:                                               ; preds = %3
  %11 = landingpad { ptr, i32 }
          cleanup
  %12 = getelementptr inbounds nuw i8, ptr %4, i64 8
  invoke void @__gmpz_clear(ptr noundef nonnull align 8 dereferenceable(16) %12)
          to label %_ZN4cvc58internal9BitVectorD2Ev.exit3 unwind label %13

13:                                               ; preds = %10
  %14 = landingpad { ptr, i32 }
          catch ptr null
  %15 = extractvalue { ptr, i32 } %14, 0
  call void @__clang_call_terminate(ptr %15) #10
  unreachable

_ZN4cvc58internal9BitVectorD2Ev.exit3:            ; preds = %10
  call void @llvm.lifetime.end.p0(i64 24, ptr nonnull %4) #9
  resume { ptr, i32 } %11
}